; Function Attrs: null_pointer_is_valid sspstrong uwtable
define internal i32 @dissect_ActCtxInfo_CltCtx(ptr noundef %0, i32 noundef %1, ptr noundef %2, ptr noundef %3, ptr noundef %4, ptr noundef %5) #0 {
  %7 = getelementptr inbounds nuw i8, ptr %4, i64 25
  %8 = load i8, ptr %7, align 1, !range !9, !noundef !10
  %9 = trunc nuw i8 %8 to i1
  br i1 %9, label %13, label %10

10:                                               ; preds = %6
  %11 = load i32, ptr @hf_sysact_context, align 4
  %12 = tail call i32 @dissect_dcom_MInterfacePointer(ptr noundef %0, i32 noundef %1, ptr noundef %2, ptr noundef %3, ptr noundef %4, ptr noundef %5, i32 noundef %11, ptr noundef null)
  br label %13

13:                                               ; preds = %6, %10
  %.0 = phi i32 [ %12, %10 ], [ %1, %6 ]
  ret i32 %.0
}